target datalayout = "e-m:e-p270:32:32-p271:32:32-p272:64:64-i64:64-i128:128-f80:128-n8:16:32:64-S128"
target triple = "x86_64-pc-linux-gnu"

%"class.std::__cxx11::basic_string" = type { %"struct.std::__cxx11::basic_string<char>::_Alloc_hider", i64, %union.anon }
%"struct.std::__cxx11::basic_string<char>::_Alloc_hider" = type { ptr }
%union.anon = type { i64, [8 x i8] }
%struct.ThreadData = type { [4 x i32], i32, i8, [4 x [4 x i16]], i32, %struct.pos, i8, [50 x [4 x i16]], [13 x %struct.WinnersType], [14 x %struct.moveType], [50 x %struct.moveType], [50 x %struct.moveType], double, i32, i32, [8192 x %struct.relRanksType], ptr, %class.Moves }
%struct.pos = type { [4 x [4 x i16]], [4 x i16], [4 x [4 x i8]], [4 x i32], [50 x [4 x i16]], [50 x i32], [50 x %struct.moveType], i32, i32, [4 x %struct.highCardType], [4 x %struct.highCardType] }
%struct.highCardType = type { i32, i32 }
%struct.WinnersType = type { i32, [4 x %struct.WinnerEntryType] }
%struct.WinnerEntryType = type { i32, i32, i32, i32, i32 }
%struct.moveType = type { i32, i32, i32, i32 }
%struct.relRanksType = type { [15 x [4 x %struct.absRankType]] }
%struct.absRankType = type { i8, i8 }
%class.Moves = type { i32, i32, i32, i32, i32, i32, i32, i32, i32, [13 x %"struct.Moves::trackType"], ptr, [13 x [4 x %struct.movePlyType]], ptr, [13 x [4 x i32]], [13 x %"class.std::__cxx11::basic_string"], [13 x [4 x %"struct.Moves::moveStatType"]], [13 x [4 x %"struct.Moves::moveStatType"]], [13 x [4 x %"struct.Moves::moveStatsType"]], [13 x [4 x %"struct.Moves::moveStatsType"]], %"struct.Moves::moveStatsType", %"struct.Moves::moveStatsType", [16 x { i64, i64 }] }
%"struct.Moves::trackType" = type { i32, i32, [4 x i32], [4 x i32], %struct.trickDataType, [4 x %struct.extCard], [4 x i32], [4 x [4 x i32]], [4 x i32] }
%struct.trickDataType = type { [4 x i32], i32, i32, i32, i32, i32 }
%struct.extCard = type { i32, i32, i32 }
%struct.movePlyType = type { [14 x %struct.moveType], i32, i32 }
%"struct.Moves::moveStatType" = type { i32, i32, i32, i32 }
%"struct.Moves::moveStatsType" = type { i32, [13 x %"struct.Moves::moveStatType"] }
%struct.deal = type { i32, i32, [3 x i32], [3 x i32], [4 x [4 x i32]] }

@bitMapRank = global [16 x i16] [i16 0, i16 0, i16 1, i16 2, i16 4, i16 8, i16 16, i16 32, i16 64, i16 128, i16 256, i16 512, i16 1024, i16 2048, i16 4096, i16 8192], align 16

; Function Attrs: mustprogress nounwind uwtable
define void @_Z11InitWinnersRK4dealR3posPK10ThreadData(ptr noundef nonnull align 4 dereferenceable(96) %0, ptr noundef nonnull align 4 dereferenceable(1544) %1, ptr noundef %2) #5 {
  %4 = alloca ptr, align 8
  %5 = alloca ptr, align 8
  %6 = alloca ptr, align 8
  %7 = alloca i32, align 4
  %8 = alloca i32, align 4
  %9 = alloca i32, align 4
  %10 = alloca [4 x [4 x i16]], align 16
  %11 = alloca i32, align 4
  %12 = alloca i32, align 4
  %13 = alloca i32, align 4
  %14 = alloca i32, align 4
  %15 = alloca i32, align 4
  %16 = alloca i32, align 4
  store ptr %0, ptr %4, align 8
  store ptr %1, ptr %5, align 8
  store ptr %2, ptr %6, align 8
  store i32 0, ptr %11, align 4
  br label %17

17:                                               ; preds = %35, %3
  %18 = load i32, ptr %11, align 4
  %19 = icmp slt i32 %18, 4
  br i1 %19, label %20, label %38

20:                                               ; preds = %17
  store i32 0, ptr %12, align 4
  br label %21

21:                                               ; preds = %31, %20
  %22 = load i32, ptr %12, align 4
  %23 = icmp slt i32 %22, 4
  br i1 %23, label %24, label %34

24:                                               ; preds = %21
  %25 = load i32, ptr %11, align 4
  %26 = sext i32 %25 to i64
  %27 = getelementptr inbounds [4 x [4 x i16]], ptr %10, i64 0, i64 %26
  %28 = load i32, ptr %12, align 4
  %29 = sext i32 %28 to i64
  %30 = getelementptr inbounds [4 x i16], ptr %27, i64 0, i64 %29
  store i16 0, ptr %30, align 2
  br label %31

31:                                               ; preds = %24
  %32 = load i32, ptr %12, align 4
  %33 = add nsw i32 %32, 1
  store i32 %33, ptr %12, align 4
  br label %21, !llvm.loop !32

34:                                               ; preds = %21
  br label %35

35:                                               ; preds = %34
  %36 = load i32, ptr %11, align 4
  %37 = add nsw i32 %36, 1
  store i32 %37, ptr %11, align 4
  br label %17, !llvm.loop !33

38:                                               ; preds = %17
  store i32 0, ptr %13, align 4
  br label %39

39:                                               ; preds = %79, %38
  %40 = load i32, ptr %13, align 4
  %41 = load ptr, ptr %5, align 8
  %42 = getelementptr inbounds nuw %struct.pos, ptr %41, i32 0, i32 7
  %43 = load i32, ptr %42, align 4
  %44 = icmp slt i32 %40, %43
  br i1 %44, label %45, label %82

45:                                               ; preds = %39
  %46 = load ptr, ptr %4, align 8
  %47 = getelementptr inbounds nuw %struct.deal, ptr %46, i32 0, i32 1
  %48 = load i32, ptr %47, align 4
  %49 = load i32, ptr %13, align 4
  %50 = add nsw i32 %48, %49
  %51 = and i32 %50, 3
  store i32 %51, ptr %7, align 4
  %52 = load ptr, ptr %4, align 8
  %53 = getelementptr inbounds nuw %struct.deal, ptr %52, i32 0, i32 2
  %54 = load i32, ptr %13, align 4
  %55 = sext i32 %54 to i64
  %56 = getelementptr inbounds [3 x i32], ptr %53, i64 0, i64 %55
  %57 = load i32, ptr %56, align 4
  store i32 %57, ptr %8, align 4
  %58 = load ptr, ptr %4, align 8
  %59 = getelementptr inbounds nuw %struct.deal, ptr %58, i32 0, i32 3
  %60 = load i32, ptr %13, align 4
  %61 = sext i32 %60 to i64
  %62 = getelementptr inbounds [3 x i32], ptr %59, i64 0, i64 %61
  %63 = load i32, ptr %62, align 4
  store i32 %63, ptr %9, align 4
  %64 = load i32, ptr %9, align 4
  %65 = sext i32 %64 to i64
  %66 = getelementptr inbounds [16 x i16], ptr @bitMapRank, i64 0, i64 %65
  %67 = load i16, ptr %66, align 2
  %68 = zext i16 %67 to i32
  %69 = load i32, ptr %7, align 4
  %70 = sext i32 %69 to i64
  %71 = getelementptr inbounds [4 x [4 x i16]], ptr %10, i64 0, i64 %70
  %72 = load i32, ptr %8, align 4
  %73 = sext i32 %72 to i64
  %74 = getelementptr inbounds [4 x i16], ptr %71, i64 0, i64 %73
  %75 = load i16, ptr %74, align 2
  %76 = zext i16 %75 to i32
  %77 = or i32 %76, %68
  %78 = trunc i32 %77 to i16
  store i16 %78, ptr %74, align 2
  br label %79

79:                                               ; preds = %45
  %80 = load i32, ptr %13, align 4
  %81 = add nsw i32 %80, 1
  store i32 %81, ptr %13, align 4
  br label %39, !llvm.loop !34

82:                                               ; preds = %39
  store i32 0, ptr %15, align 4
  br label %83

83:                                               ; preds = %192, %82
  %84 = load i32, ptr %15, align 4
  %85 = icmp slt i32 %84, 4
  br i1 %85, label %86, label %195

86:                                               ; preds = %83
  store i32 0, ptr %14, align 4
  store i32 0, ptr %16, align 4
  br label %87

87:                                               ; preds = %112, %86
  %88 = load i32, ptr %16, align 4
  %89 = icmp slt i32 %88, 4
  br i1 %89, label %90, label %115

90:                                               ; preds = %87
  %91 = load i32, ptr %16, align 4
  %92 = sext i32 %91 to i64
  %93 = getelementptr inbounds [4 x [4 x i16]], ptr %10, i64 0, i64 %92
  %94 = load i32, ptr %15, align 4
  %95 = sext i32 %94 to i64
  %96 = getelementptr inbounds [4 x i16], ptr %93, i64 0, i64 %95
  %97 = load i16, ptr %96, align 2
  %98 = zext i16 %97 to i32
  %99 = load ptr, ptr %6, align 8
  %100 = getelementptr inbounds nuw %struct.ThreadData, ptr %99, i32 0, i32 3
  %101 = load i32, ptr %16, align 4
  %102 = sext i32 %101 to i64
  %103 = getelementptr inbounds [4 x [4 x i16]], ptr %100, i64 0, i64 %102
  %104 = load i32, ptr %15, align 4
  %105 = sext i32 %104 to i64
  %106 = getelementptr inbounds [4 x i16], ptr %103, i64 0, i64 %105
  %107 = load i16, ptr %106, align 2
  %108 = zext i16 %107 to i32
  %109 = or i32 %98, %108
  %110 = load i32, ptr %14, align 4
  %111 = or i32 %110, %109
  store i32 %111, ptr %14, align 4
  br label %112

112:                                              ; preds = %90
  %113 = load i32, ptr %16, align 4
  %114 = add nsw i32 %113, 1
  store i32 %114, ptr %16, align 4
  br label %87, !llvm.loop !35

115:                                              ; preds = %87
  %116 = load ptr, ptr %6, align 8
  %117 = getelementptr inbounds nuw %struct.ThreadData, ptr %116, i32 0, i32 15
  %118 = load i32, ptr %14, align 4
  %119 = sext i32 %118 to i64
  %120 = getelementptr inbounds [8192 x %struct.relRanksType], ptr %117, i64 0, i64 %119
  %121 = getelementptr inbounds nuw %struct.relRanksType, ptr %120, i32 0, i32 0
  %122 = getelementptr inbounds [15 x [4 x %struct.absRankType]], ptr %121, i64 0, i64 1
  %123 = load i32, ptr %15, align 4
  %124 = sext i32 %123 to i64
  %125 = getelementptr inbounds [4 x %struct.absRankType], ptr %122, i64 0, i64 %124
  %126 = getelementptr inbounds nuw %struct.absRankType, ptr %125, i32 0, i32 0
  %127 = load i8, ptr %126, align 2
  %128 = sext i8 %127 to i32
  %129 = load ptr, ptr %5, align 8
  %130 = getelementptr inbounds nuw %struct.pos, ptr %129, i32 0, i32 9
  %131 = load i32, ptr %15, align 4
  %132 = sext i32 %131 to i64
  %133 = getelementptr inbounds [4 x %struct.highCardType], ptr %130, i64 0, i64 %132
  %134 = getelementptr inbounds nuw %struct.highCardType, ptr %133, i32 0, i32 0
  store i32 %128, ptr %134, align 4
  %135 = load ptr, ptr %6, align 8
  %136 = getelementptr inbounds nuw %struct.ThreadData, ptr %135, i32 0, i32 15
  %137 = load i32, ptr %14, align 4
  %138 = sext i32 %137 to i64
  %139 = getelementptr inbounds [8192 x %struct.relRanksType], ptr %136, i64 0, i64 %138
  %140 = getelementptr inbounds nuw %struct.relRanksType, ptr %139, i32 0, i32 0
  %141 = getelementptr inbounds [15 x [4 x %struct.absRankType]], ptr %140, i64 0, i64 1
  %142 = load i32, ptr %15, align 4
  %143 = sext i32 %142 to i64
  %144 = getelementptr inbounds [4 x %struct.absRankType], ptr %141, i64 0, i64 %143
  %145 = getelementptr inbounds nuw %struct.absRankType, ptr %144, i32 0, i32 1
  %146 = load i8, ptr %145, align 1
  %147 = sext i8 %146 to i32
  %148 = load ptr, ptr %5, align 8
  %149 = getelementptr inbounds nuw %struct.pos, ptr %148, i32 0, i32 9
  %150 = load i32, ptr %15, align 4
  %151 = sext i32 %150 to i64
  %152 = getelementptr inbounds [4 x %struct.highCardType], ptr %149, i64 0, i64 %151
  %153 = getelementptr inbounds nuw %struct.highCardType, ptr %152, i32 0, i32 1
  store i32 %147, ptr %153, align 4
  %154 = load ptr, ptr %6, align 8
  %155 = getelementptr inbounds nuw %struct.ThreadData, ptr %154, i32 0, i32 15
  %156 = load i32, ptr %14, align 4
  %157 = sext i32 %156 to i64
  %158 = getelementptr inbounds [8192 x %struct.relRanksType], ptr %155, i64 0, i64 %157
  %159 = getelementptr inbounds nuw %struct.relRanksType, ptr %158, i32 0, i32 0
  %160 = getelementptr inbounds [15 x [4 x %struct.absRankType]], ptr %159, i64 0, i64 2
  %161 = load i32, ptr %15, align 4
  %162 = sext i32 %161 to i64
  %163 = getelementptr inbounds [4 x %struct.absRankType], ptr %160, i64 0, i64 %162
  %164 = getelementptr inbounds nuw %struct.absRankType, ptr %163, i32 0, i32 0
  %165 = load i8, ptr %164, align 2
  %166 = sext i8 %165 to i32
  %167 = load ptr, ptr %5, align 8
  %168 = getelementptr inbounds nuw %struct.pos, ptr %167, i32 0, i32 10
  %169 = load i32, ptr %15, align 4
  %170 = sext i32 %169 to i64
  %171 = getelementptr inbounds [4 x %struct.highCardType], ptr %168, i64 0, i64 %170
  %172 = getelementptr inbounds nuw %struct.highCardType, ptr %171, i32 0, i32 0
  store i32 %166, ptr %172, align 4
  %173 = load ptr, ptr %6, align 8
  %174 = getelementptr inbounds nuw %struct.ThreadData, ptr %173, i32 0, i32 15
  %175 = load i32, ptr %14, align 4
  %176 = sext i32 %175 to i64
  %177 = getelementptr inbounds [8192 x %struct.relRanksType], ptr %174, i64 0, i64 %176
  %178 = getelementptr inbounds nuw %struct.relRanksType, ptr %177, i32 0, i32 0
  %179 = getelementptr inbounds [15 x [4 x %struct.absRankType]], ptr %178, i64 0, i64 2
  %180 = load i32, ptr %15, align 4
  %181 = sext i32 %180 to i64
  %182 = getelementptr inbounds [4 x %struct.absRankType], ptr %179, i64 0, i64 %181
  %183 = getelementptr inbounds nuw %struct.absRankType, ptr %182, i32 0, i32 1
  %184 = load i8, ptr %183, align 1
  %185 = sext i8 %184 to i32
  %186 = load ptr, ptr %5, align 8
  %187 = getelementptr inbounds nuw %struct.pos, ptr %186, i32 0, i32 10
  %188 = load i32, ptr %15, align 4
  %189 = sext i32 %188 to i64
  %190 = getelementptr inbounds [4 x %struct.highCardType], ptr %187, i64 0, i64 %189
  %191 = getelementptr inbounds nuw %struct.highCardType, ptr %190, i32 0, i32 1
  store i32 %185, ptr %191, align 4
  br label %192

192:                                              ; preds = %115
  %193 = load i32, ptr %15, align 4
  %194 = add nsw i32 %193, 1
  store i32 %194, ptr %15, align 4
  br label %83, !llvm.loop !36

195:                                              ; preds = %83
  ret void
}