; Function Attrs: mustprogress nofree norecurse nosync nounwind memory(read, argmem: readwrite, inaccessiblemem: none) uwtable
define void @_Z11InitWinnersRK4dealR3posPK10ThreadData(ptr noundef nonnull readonly align 4 captures(none) dereferenceable(96) %0, ptr noundef nonnull align 4 captures(none) dereferenceable(1544) %1, ptr noundef readonly captures(none) %2) local_unnamed_addr #9 {
.preheader53:
  %3 = alloca [4 x [4 x i16]], align 16
  call void @llvm.memset.p0.i64(ptr noundef nonnull align 16 dereferenceable(32) %3, i8 0, i64 32, i1 false)
  %4 = getelementptr inbounds nuw i8, ptr %1, i64 1472
  %5 = load i32, ptr %4, align 4
  %6 = icmp sgt i32 %5, 0
  br i1 %6, label %.lr.ph, label %.preheader52

.lr.ph:                                           ; preds = %.preheader53
  %7 = getelementptr inbounds nuw i8, ptr %0, i64 4
  %8 = load i32, ptr %7, align 4
  %9 = getelementptr inbounds nuw i8, ptr %0, i64 8
  %10 = getelementptr inbounds nuw i8, ptr %0, i64 20
  %wide.trip.count = zext nneg i32 %5 to i64
  br label %15

.preheader52:                                     ; preds = %15, %.preheader53
  %11 = getelementptr inbounds nuw i8, ptr %2, i64 22
  %12 = getelementptr inbounds nuw i8, ptr %2, i64 4944
  %13 = getelementptr inbounds nuw i8, ptr %1, i64 1480
  %14 = getelementptr inbounds nuw i8, ptr %1, i64 1512
  br label %.preheader

15:                                               ; preds = %.lr.ph, %15
  %indvars.iv = phi i64 [ 0, %.lr.ph ], [ %indvars.iv.next, %15 ]
  %16 = trunc i64 %indvars.iv to i32
  %17 = add i32 %8, %16
  %18 = and i32 %17, 3
  %19 = getelementptr inbounds nuw [3 x i32], ptr %9, i64 0, i64 %indvars.iv
  %20 = load i32, ptr %19, align 4
  %21 = getelementptr inbounds nuw [3 x i32], ptr %10, i64 0, i64 %indvars.iv
  %22 = load i32, ptr %21, align 4
  %23 = sext i32 %22 to i64
  %24 = getelementptr inbounds [16 x i16], ptr @bitMapRank, i64 0, i64 %23
  %25 = load i16, ptr %24, align 2
  %26 = zext nneg i32 %18 to i64
  %27 = sext i32 %20 to i64
  %28 = getelementptr inbounds [4 x [4 x i16]], ptr %3, i64 0, i64 %26, i64 %27
  %29 = load i16, ptr %28, align 2
  %30 = or i16 %29, %25
  store i16 %30, ptr %28, align 2
  %indvars.iv.next = add nuw nsw i64 %indvars.iv, 1
  %exitcond.not = icmp eq i64 %indvars.iv.next, %wide.trip.count
  br i1 %exitcond.not, label %.preheader52, label %15, !llvm.loop !34

.preheader:                                       ; preds = %.preheader52, %39
  %indvars.iv68 = phi i64 [ 0, %.preheader52 ], [ %indvars.iv.next69, %39 ]
  br label %31

31:                                               ; preds = %.preheader, %31
  %indvars.iv64 = phi i64 [ 0, %.preheader ], [ %indvars.iv.next65, %31 ]
  %.04858 = phi i32 [ 0, %.preheader ], [ %38, %31 ]
  %32 = getelementptr inbounds nuw [4 x [4 x i16]], ptr %3, i64 0, i64 %indvars.iv64, i64 %indvars.iv68
  %33 = load i16, ptr %32, align 2
  %34 = getelementptr inbounds nuw [4 x [4 x i16]], ptr %11, i64 0, i64 %indvars.iv64, i64 %indvars.iv68
  %35 = load i16, ptr %34, align 2
  %36 = or i16 %35, %33
  %37 = zext i16 %36 to i32
  %38 = or i32 %.04858, %37
  %indvars.iv.next65 = add nuw nsw i64 %indvars.iv64, 1
  %exitcond67.not = icmp eq i64 %indvars.iv.next65, 4
  br i1 %exitcond67.not, label %39, label %31, !llvm.loop !35

39:                                               ; preds = %31
  %40 = zext nneg i32 %38 to i64
  %41 = getelementptr inbounds nuw [8192 x %struct.relRanksType], ptr %12, i64 0, i64 %40
  %42 = getelementptr inbounds nuw i8, ptr %41, i64 8
  %43 = getelementptr inbounds nuw [4 x %struct.absRankType], ptr %42, i64 0, i64 %indvars.iv68
  %44 = load i8, ptr %43, align 2
  %45 = sext i8 %44 to i32
  %46 = getelementptr inbounds nuw [4 x %struct.highCardType], ptr %13, i64 0, i64 %indvars.iv68
  store i32 %45, ptr %46, align 4
  %47 = getelementptr inbounds nuw i8, ptr %43, i64 1
  %48 = load i8, ptr %47, align 1
  %49 = sext i8 %48 to i32
  %50 = getelementptr inbounds nuw i8, ptr %46, i64 4
  store i32 %49, ptr %50, align 4
  %51 = getelementptr inbounds nuw i8, ptr %41, i64 16
  %52 = getelementptr inbounds nuw [4 x %struct.absRankType], ptr %51, i64 0, i64 %indvars.iv68
  %53 = load i8, ptr %52, align 2
  %54 = sext i8 %53 to i32
  %55 = getelementptr inbounds nuw [4 x %struct.highCardType], ptr %14, i64 0, i64 %indvars.iv68
  store i32 %54, ptr %55, align 4
  %56 = getelementptr inbounds nuw i8, ptr %52, i64 1
  %57 = load i8, ptr %56, align 1
  %58 = sext i8 %57 to i32
  %59 = getelementptr inbounds nuw i8, ptr %55, i64 4
  store i32 %58, ptr %59, align 4
  %indvars.iv.next69 = add nuw nsw i64 %indvars.iv68, 1
  %exitcond71.not = icmp eq i64 %indvars.iv.next69, 4
  br i1 %exitcond71.not, label %60, label %.preheader, !llvm.loop !36

60:                                               ; preds = %39
  ret void
}